target datalayout = "e-m:e-p270:32:32-p271:32:32-p272:64:64-i64:64-i128:128-f80:128-n8:16:32:64-S128"
target triple = "x86_64-pc-linux-gnu"

%struct.jv = type { i8, i8, i16, i32, %union.anon }
%union.anon = type { ptr }

@.str = private unnamed_addr constant [16 x i8] c"cannot be added\00", align 1
@.str.8 = private unnamed_addr constant [23 x i8] c"%s (%s) and %s (%s) %s\00", align 1

; Function Attrs: nounwind uwtable
define internal { i64, ptr } @type_error2(i64 %0, ptr %1, i64 %2, ptr %3, ptr noundef %4) #0 {
  %6 = alloca %struct.jv, align 8
  %7 = alloca %struct.jv, align 8
  %8 = alloca %struct.jv, align 8
  %9 = alloca ptr, align 8
  %10 = alloca [15 x i8], align 1
  %11 = alloca [15 x i8], align 1
  %12 = alloca ptr, align 8
  %13 = alloca ptr, align 8
  %14 = alloca %struct.jv, align 8
  %15 = getelementptr inbounds nuw { i64, ptr }, ptr %7, i32 0, i32 0
  store i64 %0, ptr %15, align 8
  %16 = getelementptr inbounds nuw { i64, ptr }, ptr %7, i32 0, i32 1
  store ptr %1, ptr %16, align 8
  %17 = getelementptr inbounds nuw { i64, ptr }, ptr %8, i32 0, i32 0
  store i64 %2, ptr %17, align 8
  %18 = getelementptr inbounds nuw { i64, ptr }, ptr %8, i32 0, i32 1
  store ptr %3, ptr %18, align 8
  store ptr %4, ptr %9, align 8, !tbaa !12
  call void @llvm.lifetime.start.p0(i64 15, ptr %10) #10
  call void @llvm.lifetime.start.p0(i64 15, ptr %11) #10
  call void @llvm.lifetime.start.p0(i64 8, ptr %12) #10
  %19 = getelementptr inbounds nuw { i64, ptr }, ptr %7, i32 0, i32 0
  %20 = load i64, ptr %19, align 8
  %21 = getelementptr inbounds nuw { i64, ptr }, ptr %7, i32 0, i32 1
  %22 = load ptr, ptr %21, align 8
  %23 = call i32 @jv_get_kind(i64 %20, ptr %22)
  %24 = call ptr @jv_kind_name(i32 noundef %23)
  store ptr %24, ptr %12, align 8, !tbaa !12
  call void @llvm.lifetime.start.p0(i64 8, ptr %13) #10
  %25 = getelementptr inbounds nuw { i64, ptr }, ptr %8, i32 0, i32 0
  %26 = load i64, ptr %25, align 8
  %27 = getelementptr inbounds nuw { i64, ptr }, ptr %8, i32 0, i32 1
  %28 = load ptr, ptr %27, align 8
  %29 = call i32 @jv_get_kind(i64 %26, ptr %28)
  %30 = call ptr @jv_kind_name(i32 noundef %29)
  store ptr %30, ptr %13, align 8, !tbaa !12
  %31 = load ptr, ptr %12, align 8, !tbaa !12
  %32 = getelementptr inbounds [15 x i8], ptr %10, i64 0, i64 0
  %33 = getelementptr inbounds nuw { i64, ptr }, ptr %7, i32 0, i32 0
  %34 = load i64, ptr %33, align 8
  %35 = getelementptr inbounds nuw { i64, ptr }, ptr %7, i32 0, i32 1
  %36 = load ptr, ptr %35, align 8
  %37 = call ptr @jv_dump_string_trunc(i64 %34, ptr %36, ptr noundef %32, i64 noundef 15)
  %38 = load ptr, ptr %13, align 8, !tbaa !12
  %39 = getelementptr inbounds [15 x i8], ptr %11, i64 0, i64 0
  %40 = getelementptr inbounds nuw { i64, ptr }, ptr %8, i32 0, i32 0
  %41 = load i64, ptr %40, align 8
  %42 = getelementptr inbounds nuw { i64, ptr }, ptr %8, i32 0, i32 1
  %43 = load ptr, ptr %42, align 8
  %44 = call ptr @jv_dump_string_trunc(i64 %41, ptr %43, ptr noundef %39, i64 noundef 15)
  %45 = load ptr, ptr %9, align 8, !tbaa !12
  %46 = call { i64, ptr } (ptr, ...) @jv_string_fmt(ptr noundef @.str.8, ptr noundef %31, ptr noundef %37, ptr noundef %38, ptr noundef %44, ptr noundef %45)
  %47 = getelementptr inbounds nuw { i64, ptr }, ptr %14, i32 0, i32 0
  %48 = extractvalue { i64, ptr } %46, 0
  store i64 %48, ptr %47, align 8
  %49 = getelementptr inbounds nuw { i64, ptr }, ptr %14, i32 0, i32 1
  %50 = extractvalue { i64, ptr } %46, 1
  store ptr %50, ptr %49, align 8
  %51 = getelementptr inbounds nuw { i64, ptr }, ptr %14, i32 0, i32 0
  %52 = load i64, ptr %51, align 8
  %53 = getelementptr inbounds nuw { i64, ptr }, ptr %14, i32 0, i32 1
  %54 = load ptr, ptr %53, align 8
  %55 = call { i64, ptr } @jv_invalid_with_msg(i64 %52, ptr %54)
  %56 = getelementptr inbounds nuw { i64, ptr }, ptr %6, i32 0, i32 0
  %57 = extractvalue { i64, ptr } %55, 0
  store i64 %57, ptr %56, align 8
  %58 = getelementptr inbounds nuw { i64, ptr }, ptr %6, i32 0, i32 1
  %59 = extractvalue { i64, ptr } %55, 1
  store ptr %59, ptr %58, align 8
  call void @llvm.lifetime.end.p0(i64 8, ptr %13) #10
  call void @llvm.lifetime.end.p0(i64 8, ptr %12) #10
  call void @llvm.lifetime.end.p0(i64 15, ptr %11) #10
  call void @llvm.lifetime.end.p0(i64 15, ptr %10) #10
  %60 = load { i64, ptr }, ptr %6, align 8
  ret { i64, ptr } %60
}

; Function Attrs: nounwind uwtable
define dso_local { i64, ptr } @binop_plus(i64 %0, ptr %1, i64 %2, ptr %3) #0 {
  %5 = alloca %struct.jv, align 8
  %6 = alloca %struct.jv, align 8
  %7 = alloca %struct.jv, align 8
  %8 = getelementptr inbounds nuw { i64, ptr }, ptr %6, i32 0, i32 0
  store i64 %0, ptr %8, align 8
  %9 = getelementptr inbounds nuw { i64, ptr }, ptr %6, i32 0, i32 1
  store ptr %1, ptr %9, align 8
  %10 = getelementptr inbounds nuw { i64, ptr }, ptr %7, i32 0, i32 0
  store i64 %2, ptr %10, align 8
  %11 = getelementptr inbounds nuw { i64, ptr }, ptr %7, i32 0, i32 1
  store ptr %3, ptr %11, align 8
  %12 = getelementptr inbounds nuw { i64, ptr }, ptr %6, i32 0, i32 0
  %13 = load i64, ptr %12, align 8
  %14 = getelementptr inbounds nuw { i64, ptr }, ptr %6, i32 0, i32 1
  %15 = load ptr, ptr %14, align 8
  %16 = call i32 @jv_get_kind(i64 %13, ptr %15)
  %17 = icmp eq i32 %16, 1
  br i1 %17, label %18, label %23

18:                                               ; preds = %4
  %19 = getelementptr inbounds nuw { i64, ptr }, ptr %6, i32 0, i32 0
  %20 = load i64, ptr %19, align 8
  %21 = getelementptr inbounds nuw { i64, ptr }, ptr %6, i32 0, i32 1
  %22 = load ptr, ptr %21, align 8
  call void @jv_free(i64 %20, ptr %22)
  call void @llvm.memcpy.p0.p0.i64(ptr align 8 %5, ptr align 8 %7, i64 16, i1 false), !tbaa.struct !4
  br label %172

23:                                               ; preds = %4
  %24 = getelementptr inbounds nuw { i64, ptr }, ptr %7, i32 0, i32 0
  %25 = load i64, ptr %24, align 8
  %26 = getelementptr inbounds nuw { i64, ptr }, ptr %7, i32 0, i32 1
  %27 = load ptr, ptr %26, align 8
  %28 = call i32 @jv_get_kind(i64 %25, ptr %27)
  %29 = icmp eq i32 %28, 1
  br i1 %29, label %30, label %35

30:                                               ; preds = %23
  %31 = getelementptr inbounds nuw { i64, ptr }, ptr %7, i32 0, i32 0
  %32 = load i64, ptr %31, align 8
  %33 = getelementptr inbounds nuw { i64, ptr }, ptr %7, i32 0, i32 1
  %34 = load ptr, ptr %33, align 8
  call void @jv_free(i64 %32, ptr %34)
  call void @llvm.memcpy.p0.p0.i64(ptr align 8 %5, ptr align 8 %6, i64 16, i1 false), !tbaa.struct !4
  br label %172

35:                                               ; preds = %23
  %36 = getelementptr inbounds nuw { i64, ptr }, ptr %6, i32 0, i32 0
  %37 = load i64, ptr %36, align 8
  %38 = getelementptr inbounds nuw { i64, ptr }, ptr %6, i32 0, i32 1
  %39 = load ptr, ptr %38, align 8
  %40 = call i32 @jv_get_kind(i64 %37, ptr %39)
  %41 = icmp eq i32 %40, 4
  br i1 %41, label %42, label %74

42:                                               ; preds = %35
  %43 = getelementptr inbounds nuw { i64, ptr }, ptr %7, i32 0, i32 0
  %44 = load i64, ptr %43, align 8
  %45 = getelementptr inbounds nuw { i64, ptr }, ptr %7, i32 0, i32 1
  %46 = load ptr, ptr %45, align 8
  %47 = call i32 @jv_get_kind(i64 %44, ptr %46)
  %48 = icmp eq i32 %47, 4
  br i1 %48, label %49, label %74

49:                                               ; preds = %42
  %50 = getelementptr inbounds nuw { i64, ptr }, ptr %6, i32 0, i32 0
  %51 = load i64, ptr %50, align 8
  %52 = getelementptr inbounds nuw { i64, ptr }, ptr %6, i32 0, i32 1
  %53 = load ptr, ptr %52, align 8
  %54 = call double @jv_number_value(i64 %51, ptr %53)
  %55 = getelementptr inbounds nuw { i64, ptr }, ptr %7, i32 0, i32 0
  %56 = load i64, ptr %55, align 8
  %57 = getelementptr inbounds nuw { i64, ptr }, ptr %7, i32 0, i32 1
  %58 = load ptr, ptr %57, align 8
  %59 = call double @jv_number_value(i64 %56, ptr %58)
  %60 = fadd double %54, %59
  %61 = call { i64, ptr } @jv_number(double noundef %60)
  %62 = getelementptr inbounds nuw { i64, ptr }, ptr %5, i32 0, i32 0
  %63 = extractvalue { i64, ptr } %61, 0
  store i64 %63, ptr %62, align 8
  %64 = getelementptr inbounds nuw { i64, ptr }, ptr %5, i32 0, i32 1
  %65 = extractvalue { i64, ptr } %61, 1
  store ptr %65, ptr %64, align 8
  %66 = getelementptr inbounds nuw { i64, ptr }, ptr %6, i32 0, i32 0
  %67 = load i64, ptr %66, align 8
  %68 = getelementptr inbounds nuw { i64, ptr }, ptr %6, i32 0, i32 1
  %69 = load ptr, ptr %68, align 8
  call void @jv_free(i64 %67, ptr %69)
  %70 = getelementptr inbounds nuw { i64, ptr }, ptr %7, i32 0, i32 0
  %71 = load i64, ptr %70, align 8
  %72 = getelementptr inbounds nuw { i64, ptr }, ptr %7, i32 0, i32 1
  %73 = load ptr, ptr %72, align 8
  call void @jv_free(i64 %71, ptr %73)
  br label %172

74:                                               ; preds = %42, %35
  %75 = getelementptr inbounds nuw { i64, ptr }, ptr %6, i32 0, i32 0
  %76 = load i64, ptr %75, align 8
  %77 = getelementptr inbounds nuw { i64, ptr }, ptr %6, i32 0, i32 1
  %78 = load ptr, ptr %77, align 8
  %79 = call i32 @jv_get_kind(i64 %76, ptr %78)
  %80 = icmp eq i32 %79, 5
  br i1 %80, label %81, label %102

81:                                               ; preds = %74
  %82 = getelementptr inbounds nuw { i64, ptr }, ptr %7, i32 0, i32 0
  %83 = load i64, ptr %82, align 8
  %84 = getelementptr inbounds nuw { i64, ptr }, ptr %7, i32 0, i32 1
  %85 = load ptr, ptr %84, align 8
  %86 = call i32 @jv_get_kind(i64 %83, ptr %85)
  %87 = icmp eq i32 %86, 5
  br i1 %87, label %88, label %102

88:                                               ; preds = %81
  %89 = getelementptr inbounds nuw { i64, ptr }, ptr %6, i32 0, i32 0
  %90 = load i64, ptr %89, align 8
  %91 = getelementptr inbounds nuw { i64, ptr }, ptr %6, i32 0, i32 1
  %92 = load ptr, ptr %91, align 8
  %93 = getelementptr inbounds nuw { i64, ptr }, ptr %7, i32 0, i32 0
  %94 = load i64, ptr %93, align 8
  %95 = getelementptr inbounds nuw { i64, ptr }, ptr %7, i32 0, i32 1
  %96 = load ptr, ptr %95, align 8
  %97 = call { i64, ptr } @jv_string_concat(i64 %90, ptr %92, i64 %94, ptr %96)
  %98 = getelementptr inbounds nuw { i64, ptr }, ptr %5, i32 0, i32 0
  %99 = extractvalue { i64, ptr } %97, 0
  store i64 %99, ptr %98, align 8
  %100 = getelementptr inbounds nuw { i64, ptr }, ptr %5, i32 0, i32 1
  %101 = extractvalue { i64, ptr } %97, 1
  store ptr %101, ptr %100, align 8
  br label %172

102:                                              ; preds = %81, %74
  %103 = getelementptr inbounds nuw { i64, ptr }, ptr %6, i32 0, i32 0
  %104 = load i64, ptr %103, align 8
  %105 = getelementptr inbounds nuw { i64, ptr }, ptr %6, i32 0, i32 1
  %106 = load ptr, ptr %105, align 8
  %107 = call i32 @jv_get_kind(i64 %104, ptr %106)
  %108 = icmp eq i32 %107, 6
  br i1 %108, label %109, label %130

109:                                              ; preds = %102
  %110 = getelementptr inbounds nuw { i64, ptr }, ptr %7, i32 0, i32 0
  %111 = load i64, ptr %110, align 8
  %112 = getelementptr inbounds nuw { i64, ptr }, ptr %7, i32 0, i32 1
  %113 = load ptr, ptr %112, align 8
  %114 = call i32 @jv_get_kind(i64 %111, ptr %113)
  %115 = icmp eq i32 %114, 6
  br i1 %115, label %116, label %130

116:                                              ; preds = %109
  %117 = getelementptr inbounds nuw { i64, ptr }, ptr %6, i32 0, i32 0
  %118 = load i64, ptr %117, align 8
  %119 = getelementptr inbounds nuw { i64, ptr }, ptr %6, i32 0, i32 1
  %120 = load ptr, ptr %119, align 8
  %121 = getelementptr inbounds nuw { i64, ptr }, ptr %7, i32 0, i32 0
  %122 = load i64, ptr %121, align 8
  %123 = getelementptr inbounds nuw { i64, ptr }, ptr %7, i32 0, i32 1
  %124 = load ptr, ptr %123, align 8
  %125 = call { i64, ptr } @jv_array_concat(i64 %118, ptr %120, i64 %122, ptr %124)
  %126 = getelementptr inbounds nuw { i64, ptr }, ptr %5, i32 0, i32 0
  %127 = extractvalue { i64, ptr } %125, 0
  store i64 %127, ptr %126, align 8
  %128 = getelementptr inbounds nuw { i64, ptr }, ptr %5, i32 0, i32 1
  %129 = extractvalue { i64, ptr } %125, 1
  store ptr %129, ptr %128, align 8
  br label %172

130:                                              ; preds = %109, %102
  %131 = getelementptr inbounds nuw { i64, ptr }, ptr %6, i32 0, i32 0
  %132 = load i64, ptr %131, align 8
  %133 = getelementptr inbounds nuw { i64, ptr }, ptr %6, i32 0, i32 1
  %134 = load ptr, ptr %133, align 8
  %135 = call i32 @jv_get_kind(i64 %132, ptr %134)
  %136 = icmp eq i32 %135, 7
  br i1 %136, label %137, label %158

137:                                              ; preds = %130
  %138 = getelementptr inbounds nuw { i64, ptr }, ptr %7, i32 0, i32 0
  %139 = load i64, ptr %138, align 8
  %140 = getelementptr inbounds nuw { i64, ptr }, ptr %7, i32 0, i32 1
  %141 = load ptr, ptr %140, align 8
  %142 = call i32 @jv_get_kind(i64 %139, ptr %141)
  %143 = icmp eq i32 %142, 7
  br i1 %143, label %144, label %158

144:                                              ; preds = %137
  %145 = getelementptr inbounds nuw { i64, ptr }, ptr %6, i32 0, i32 0
  %146 = load i64, ptr %145, align 8
  %147 = getelementptr inbounds nuw { i64, ptr }, ptr %6, i32 0, i32 1
  %148 = load ptr, ptr %147, align 8
  %149 = getelementptr inbounds nuw { i64, ptr }, ptr %7, i32 0, i32 0
  %150 = load i64, ptr %149, align 8
  %151 = getelementptr inbounds nuw { i64, ptr }, ptr %7, i32 0, i32 1
  %152 = load ptr, ptr %151, align 8
  %153 = call { i64, ptr } @jv_object_merge(i64 %146, ptr %148, i64 %150, ptr %152)
  %154 = getelementptr inbounds nuw { i64, ptr }, ptr %5, i32 0, i32 0
  %155 = extractvalue { i64, ptr } %153, 0
  store i64 %155, ptr %154, align 8
  %156 = getelementptr inbounds nuw { i64, ptr }, ptr %5, i32 0, i32 1
  %157 = extractvalue { i64, ptr } %153, 1
  store ptr %157, ptr %156, align 8
  br label %172

158:                                              ; preds = %137, %130
  %159 = getelementptr inbounds nuw { i64, ptr }, ptr %6, i32 0, i32 0
  %160 = load i64, ptr %159, align 8
  %161 = getelementptr inbounds nuw { i64, ptr }, ptr %6, i32 0, i32 1
  %162 = load ptr, ptr %161, align 8
  %163 = getelementptr inbounds nuw { i64, ptr }, ptr %7, i32 0, i32 0
  %164 = load i64, ptr %163, align 8
  %165 = getelementptr inbounds nuw { i64, ptr }, ptr %7, i32 0, i32 1
  %166 = load ptr, ptr %165, align 8
  %167 = call { i64, ptr } @type_error2(i64 %160, ptr %162, i64 %164, ptr %166, ptr noundef @.str)
  %168 = getelementptr inbounds nuw { i64, ptr }, ptr %5, i32 0, i32 0
  %169 = extractvalue { i64, ptr } %167, 0
  store i64 %169, ptr %168, align 8
  %170 = getelementptr inbounds nuw { i64, ptr }, ptr %5, i32 0, i32 1
  %171 = extractvalue { i64, ptr } %167, 1
  store ptr %171, ptr %170, align 8
  br label %172

172:                                              ; preds = %158, %144, %116, %88, %49, %30, %18
  %173 = load { i64, ptr }, ptr %5, align 8
  ret { i64, ptr } %173
}