; Function Attrs: nounwind uwtable
define dso_local { i64, ptr } @binop_plus(i64 %0, ptr %1, i64 %2, ptr %3) local_unnamed_addr #0 {
  %5 = alloca [15 x i8], align 1
  %6 = alloca [15 x i8], align 1
  %7 = tail call i32 @jv_get_kind(i64 %0, ptr %1) #14
  %8 = icmp eq i32 %7, 1
  br i1 %8, label %9, label %12

9:                                                ; preds = %4
  tail call void @jv_free(i64 %0, ptr %1) #14
  %10 = insertvalue { i64, ptr } poison, i64 %2, 0
  %11 = insertvalue { i64, ptr } %10, ptr %3, 1
  br label %64

12:                                               ; preds = %4
  %13 = tail call i32 @jv_get_kind(i64 %2, ptr %3) #14
  %14 = icmp eq i32 %13, 1
  br i1 %14, label %15, label %18

15:                                               ; preds = %12
  tail call void @jv_free(i64 %2, ptr %3) #14
  %16 = insertvalue { i64, ptr } poison, i64 %0, 0
  %17 = insertvalue { i64, ptr } %16, ptr %1, 1
  br label %64

18:                                               ; preds = %12
  %19 = tail call i32 @jv_get_kind(i64 %0, ptr %1) #14
  %20 = icmp eq i32 %19, 4
  br i1 %20, label %21, label %29

21:                                               ; preds = %18
  %22 = tail call i32 @jv_get_kind(i64 %2, ptr %3) #14
  %23 = icmp eq i32 %22, 4
  br i1 %23, label %24, label %29

24:                                               ; preds = %21
  %25 = tail call double @jv_number_value(i64 %0, ptr %1) #14
  %26 = tail call double @jv_number_value(i64 %2, ptr %3) #14
  %27 = fadd double %25, %26
  %28 = tail call { i64, ptr } @jv_number(double noundef %27) #14
  tail call void @jv_free(i64 %0, ptr %1) #14
  tail call void @jv_free(i64 %2, ptr %3) #14
  br label %64

29:                                               ; preds = %21, %18
  %30 = tail call i32 @jv_get_kind(i64 %0, ptr %1) #14
  %31 = icmp eq i32 %30, 5
  br i1 %31, label %32, label %37

32:                                               ; preds = %29
  %33 = tail call i32 @jv_get_kind(i64 %2, ptr %3) #14
  %34 = icmp eq i32 %33, 5
  br i1 %34, label %35, label %37

35:                                               ; preds = %32
  %36 = tail call { i64, ptr } @jv_string_concat(i64 %0, ptr %1, i64 %2, ptr %3) #14
  br label %64

37:                                               ; preds = %32, %29
  %38 = tail call i32 @jv_get_kind(i64 %0, ptr %1) #14
  %39 = icmp eq i32 %38, 6
  br i1 %39, label %40, label %45

40:                                               ; preds = %37
  %41 = tail call i32 @jv_get_kind(i64 %2, ptr %3) #14
  %42 = icmp eq i32 %41, 6
  br i1 %42, label %43, label %45

43:                                               ; preds = %40
  %44 = tail call { i64, ptr } @jv_array_concat(i64 %0, ptr %1, i64 %2, ptr %3) #14
  br label %64

45:                                               ; preds = %40, %37
  %46 = tail call i32 @jv_get_kind(i64 %0, ptr %1) #14
  %47 = icmp eq i32 %46, 7
  br i1 %47, label %48, label %53

48:                                               ; preds = %45
  %49 = tail call i32 @jv_get_kind(i64 %2, ptr %3) #14
  %50 = icmp eq i32 %49, 7
  br i1 %50, label %51, label %53

51:                                               ; preds = %48
  %52 = tail call { i64, ptr } @jv_object_merge(i64 %0, ptr %1, i64 %2, ptr %3) #14
  br label %64

53:                                               ; preds = %48, %45
  call void @llvm.lifetime.start.p0(i64 15, ptr nonnull %5) #14
  call void @llvm.lifetime.start.p0(i64 15, ptr nonnull %6) #14
  %54 = tail call i32 @jv_get_kind(i64 %0, ptr %1) #14
  %55 = tail call ptr @jv_kind_name(i32 noundef %54) #14
  %56 = tail call i32 @jv_get_kind(i64 %2, ptr %3) #14
  %57 = tail call ptr @jv_kind_name(i32 noundef %56) #14
  %58 = call ptr @jv_dump_string_trunc(i64 %0, ptr %1, ptr noundef nonnull %5, i64 noundef 15) #14
  %59 = call ptr @jv_dump_string_trunc(i64 %2, ptr %3, ptr noundef nonnull %6, i64 noundef 15) #14
  %60 = call { i64, ptr } (ptr, ...) @jv_string_fmt(ptr noundef nonnull @.str.8, ptr noundef %55, ptr noundef %58, ptr noundef %57, ptr noundef %59, ptr noundef nonnull @.str) #14
  %61 = extractvalue { i64, ptr } %60, 0
  %62 = extractvalue { i64, ptr } %60, 1
  %63 = call { i64, ptr } @jv_invalid_with_msg(i64 %61, ptr %62) #14
  call void @llvm.lifetime.end.p0(i64 15, ptr nonnull %6) #14
  call void @llvm.lifetime.end.p0(i64 15, ptr nonnull %5) #14
  br label %64

64:                                               ; preds = %53, %51, %43, %35, %24, %15, %9
  %.fca.1.insert.merged = phi { i64, ptr } [ %11, %9 ], [ %17, %15 ], [ %28, %24 ], [ %36, %35 ], [ %44, %43 ], [ %52, %51 ], [ %63, %53 ]
  ret { i64, ptr } %.fca.1.insert.merged
}